; Function Attrs: mustprogress nofree norecurse nosync nounwind willreturn memory(none) uwtable
define dso_local { ptr, i64 } @_ZN4llvm2gi7PatFrag15getParamKindStrENS1_9ParamKindE(i32 noundef %0) local_unnamed_addr #8 align 2 {
switch.lookup:
  %1 = sext i32 %0 to i64
  %switch.gep = getelementptr inbounds [3 x i64], ptr @switch.table._ZN4llvm2gi7PatFrag15printParamsListERNS_11raw_ostreamENS_14iterator_rangeIPKNS1_5ParamEEE.70, i64 0, i64 %1
  %switch.load = load i64, ptr %switch.gep, align 8
  %2 = sext i32 %0 to i64
  %switch.gep1 = getelementptr inbounds [3 x ptr], ptr @switch.table._ZN4llvm2gi7PatFrag15printParamsListERNS_11raw_ostreamENS_14iterator_rangeIPKNS1_5ParamEEE.71, i64 0, i64 %2
  %switch.load2 = load ptr, ptr %switch.gep1, align 8
  %.fca.0.insert = insertvalue { ptr, i64 } poison, ptr %switch.load2, 0
  %.fca.1.insert = insertvalue { ptr, i64 } %.fca.0.insert, i64 %switch.load, 1
  ret { ptr, i64 } %.fca.1.insert
}